target datalayout = "e-m:e-p270:32:32-p271:32:32-p272:64:64-i64:64-i128:128-f80:128-n8:16:32:64-S128"
target triple = "x86_64-pc-linux-gnu"

%struct.Vec_Wrd_t_ = type { i32, i32, ptr }
%struct.Supp_Man_t_ = type { i32, i32, i32, i32, ptr, ptr, ptr, ptr, ptr, ptr, [2 x ptr], [2 x ptr], [2 x ptr], ptr, ptr, ptr, ptr, ptr, ptr, ptr, ptr, ptr, ptr, ptr, ptr, ptr }
%struct.Hsh_VecMan_t_ = type { ptr, ptr, ptr, %struct.Vec_Int_t_, %struct.Vec_Int_t_, %struct.Vec_Int_t_ }
%struct.Vec_Int_t_ = type { i32, i32, ptr }
%struct.Vec_Ptr_t_ = type { i32, i32, ptr }
%struct.Vec_Wec_t_ = type { i32, i32, ptr }

; Function Attrs: inlinehint nounwind uwtable
define internal i32 @Vec_IntCap(ptr noundef %0) #2 {
  %2 = alloca ptr, align 8
  store ptr %0, ptr %2, align 8, !tbaa !41
  %3 = load ptr, ptr %2, align 8, !tbaa !41
  %4 = getelementptr inbounds nuw %struct.Vec_Int_t_, ptr %3, i32 0, i32 0
  %5 = load i32, ptr %4, align 8, !tbaa !58
  ret i32 %5
}

; Function Attrs: inlinehint nounwind uwtable
define internal ptr @Vec_WecEntry(ptr noundef %0, i32 noundef %1) #2 {
  %3 = alloca ptr, align 8
  %4 = alloca i32, align 4
  store ptr %0, ptr %3, align 8, !tbaa !88
  store i32 %1, ptr %4, align 4, !tbaa !8
  %5 = load ptr, ptr %3, align 8, !tbaa !88
  %6 = getelementptr inbounds nuw %struct.Vec_Wec_t_, ptr %5, i32 0, i32 2
  %7 = load ptr, ptr %6, align 8, !tbaa !180
  %8 = load i32, ptr %4, align 4, !tbaa !8
  %9 = sext i32 %8 to i64
  %10 = getelementptr inbounds %struct.Vec_Int_t_, ptr %7, i64 %9
  ret ptr %10
}

; Function Attrs: inlinehint nounwind uwtable
define internal i32 @Vec_WecCap(ptr noundef %0) #2 {
  %2 = alloca ptr, align 8
  store ptr %0, ptr %2, align 8, !tbaa !88
  %3 = load ptr, ptr %2, align 8, !tbaa !88
  %4 = getelementptr inbounds nuw %struct.Vec_Wec_t_, ptr %3, i32 0, i32 0
  %5 = load i32, ptr %4, align 8, !tbaa !216
  ret i32 %5
}

; Function Attrs: inlinehint nounwind uwtable
define internal double @Vec_WecMemory(ptr noundef %0) #2 {
  %2 = alloca double, align 8
  %3 = alloca ptr, align 8
  %4 = alloca i32, align 4
  %5 = alloca double, align 8
  %6 = alloca i32, align 4
  store ptr %0, ptr %3, align 8, !tbaa !88
  call void @llvm.lifetime.start.p0(i64 4, ptr %4) #15
  call void @llvm.lifetime.start.p0(i64 8, ptr %5) #15
  %7 = load ptr, ptr %3, align 8, !tbaa !88
  %8 = icmp eq ptr %7, null
  br i1 %8, label %9, label %10

9:                                                ; preds = %1
  store double 0.000000e+00, ptr %2, align 8
  store i32 1, ptr %6, align 4
  br label %37

10:                                               ; preds = %1
  %11 = load ptr, ptr %3, align 8, !tbaa !88
  %12 = call i32 @Vec_WecCap(ptr noundef %11)
  %13 = sext i32 %12 to i64
  %14 = mul i64 16, %13
  %15 = uitofp i64 %14 to double
  store double %15, ptr %5, align 8, !tbaa !103
  store i32 0, ptr %4, align 4, !tbaa !8
  br label %16

16:                                               ; preds = %32, %10
  %17 = load i32, ptr %4, align 4, !tbaa !8
  %18 = load ptr, ptr %3, align 8, !tbaa !88
  %19 = getelementptr inbounds nuw %struct.Vec_Wec_t_, ptr %18, i32 0, i32 1
  %20 = load i32, ptr %19, align 4, !tbaa !89
  %21 = icmp slt i32 %17, %20
  br i1 %21, label %22, label %35

22:                                               ; preds = %16
  %23 = load ptr, ptr %3, align 8, !tbaa !88
  %24 = load i32, ptr %4, align 4, !tbaa !8
  %25 = call ptr @Vec_WecEntry(ptr noundef %23, i32 noundef %24)
  %26 = call i32 @Vec_IntCap(ptr noundef %25)
  %27 = sext i32 %26 to i64
  %28 = mul i64 4, %27
  %29 = uitofp i64 %28 to double
  %30 = load double, ptr %5, align 8, !tbaa !103
  %31 = fadd double %30, %29
  store double %31, ptr %5, align 8, !tbaa !103
  br label %32

32:                                               ; preds = %22
  %33 = load i32, ptr %4, align 4, !tbaa !8
  %34 = add nsw i32 %33, 1
  store i32 %34, ptr %4, align 4, !tbaa !8
  br label %16, !llvm.loop !105

35:                                               ; preds = %16
  %36 = load double, ptr %5, align 8, !tbaa !103
  store double %36, ptr %2, align 8
  store i32 1, ptr %6, align 4
  br label %37

37:                                               ; preds = %35, %9
  call void @llvm.lifetime.end.p0(i64 8, ptr %5) #15
  call void @llvm.lifetime.end.p0(i64 4, ptr %4) #15
  %38 = load double, ptr %2, align 8
  ret double %38
}

; Function Attrs: inlinehint nounwind uwtable
define internal double @Hsh_VecManMemory(ptr noundef %0) #2 {
  %2 = alloca ptr, align 8
  store ptr %0, ptr %2, align 8, !tbaa !40
  %3 = load ptr, ptr %2, align 8, !tbaa !40
  %4 = icmp ne ptr %3, null
  br i1 %4, label %6, label %5

5:                                                ; preds = %1
  br label %21

6:                                                ; preds = %1
  %7 = load ptr, ptr %2, align 8, !tbaa !40
  %8 = getelementptr inbounds nuw %struct.Hsh_VecMan_t_, ptr %7, i32 0, i32 0
  %9 = load ptr, ptr %8, align 8, !tbaa !46
  %10 = call double @Vec_IntMemory(ptr noundef %9)
  %11 = load ptr, ptr %2, align 8, !tbaa !40
  %12 = getelementptr inbounds nuw %struct.Hsh_VecMan_t_, ptr %11, i32 0, i32 1
  %13 = load ptr, ptr %12, align 8, !tbaa !55
  %14 = call double @Vec_IntMemory(ptr noundef %13)
  %15 = fadd double %10, %14
  %16 = load ptr, ptr %2, align 8, !tbaa !40
  %17 = getelementptr inbounds nuw %struct.Hsh_VecMan_t_, ptr %16, i32 0, i32 2
  %18 = load ptr, ptr %17, align 8, !tbaa !42
  %19 = call double @Vec_IntMemory(ptr noundef %18)
  %20 = fadd double %15, %19
  br label %21

21:                                               ; preds = %6, %5
  %22 = phi double [ 0.000000e+00, %5 ], [ %20, %6 ]
  ret double %22
}

; Function Attrs: inlinehint nounwind uwtable
define internal double @Vec_IntMemory(ptr noundef %0) #2 {
  %2 = alloca ptr, align 8
  store ptr %0, ptr %2, align 8, !tbaa !41
  %3 = load ptr, ptr %2, align 8, !tbaa !41
  %4 = icmp ne ptr %3, null
  br i1 %4, label %6, label %5

5:                                                ; preds = %1
  br label %13

6:                                                ; preds = %1
  %7 = load ptr, ptr %2, align 8, !tbaa !41
  %8 = getelementptr inbounds nuw %struct.Vec_Int_t_, ptr %7, i32 0, i32 0
  %9 = load i32, ptr %8, align 8, !tbaa !58
  %10 = sext i32 %9 to i64
  %11 = uitofp i64 %10 to double
  %12 = call double @llvm.fmuladd.f64(double 4.000000e+00, double %11, double 1.600000e+01)
  br label %13

13:                                               ; preds = %6, %5
  %14 = phi double [ 0.000000e+00, %5 ], [ %12, %6 ]
  ret double %14
}

; Function Attrs: inlinehint nounwind uwtable
define internal i32 @Vec_PtrSize(ptr noundef %0) #2 {
  %2 = alloca ptr, align 8
  store ptr %0, ptr %2, align 8, !tbaa !82
  %3 = load ptr, ptr %2, align 8, !tbaa !82
  %4 = getelementptr inbounds nuw %struct.Vec_Ptr_t_, ptr %3, i32 0, i32 1
  %5 = load i32, ptr %4, align 4, !tbaa !83
  ret i32 %5
}

; Function Attrs: inlinehint nounwind uwtable
define internal double @Vec_WrdMemory(ptr noundef %0) #2 {
  %2 = alloca ptr, align 8
  store ptr %0, ptr %2, align 8, !tbaa !3
  %3 = load ptr, ptr %2, align 8, !tbaa !3
  %4 = icmp ne ptr %3, null
  br i1 %4, label %6, label %5

5:                                                ; preds = %1
  br label %13

6:                                                ; preds = %1
  %7 = load ptr, ptr %2, align 8, !tbaa !3
  %8 = getelementptr inbounds nuw %struct.Vec_Wrd_t_, ptr %7, i32 0, i32 0
  %9 = load i32, ptr %8, align 8, !tbaa !87
  %10 = sext i32 %9 to i64
  %11 = uitofp i64 %10 to double
  %12 = call double @llvm.fmuladd.f64(double 8.000000e+00, double %11, double 1.600000e+01)
  br label %13

13:                                               ; preds = %6, %5
  %14 = phi double [ 0.000000e+00, %5 ], [ %12, %6 ]
  ret double %14
}

; Function Attrs: nounwind uwtable
define i32 @Supp_ManMemory(ptr noundef %0) #0 {
  %2 = alloca ptr, align 8
  %3 = alloca i32, align 4
  store ptr %0, ptr %2, align 8, !tbaa !24
  call void @llvm.lifetime.start.p0(i64 4, ptr %3) #15
  store i32 216, ptr %3, align 4, !tbaa !8
  %4 = load ptr, ptr %2, align 8, !tbaa !24
  %5 = getelementptr inbounds nuw %struct.Supp_Man_t_, ptr %4, i32 0, i32 10
  %6 = getelementptr inbounds [2 x ptr], ptr %5, i64 0, i64 0
  %7 = load ptr, ptr %6, align 8, !tbaa !3
  %8 = call double @Vec_WrdMemory(ptr noundef %7)
  %9 = fptosi double %8 to i32
  %10 = mul nsw i32 2, %9
  %11 = load i32, ptr %3, align 4, !tbaa !8
  %12 = add nsw i32 %11, %10
  store i32 %12, ptr %3, align 4, !tbaa !8
  %13 = load ptr, ptr %2, align 8, !tbaa !24
  %14 = getelementptr inbounds nuw %struct.Supp_Man_t_, ptr %13, i32 0, i32 12
  %15 = getelementptr inbounds [2 x ptr], ptr %14, i64 0, i64 0
  %16 = load ptr, ptr %15, align 8, !tbaa !3
  %17 = call double @Vec_WrdMemory(ptr noundef %16)
  %18 = fptosi double %17 to i32
  %19 = mul nsw i32 2, %18
  %20 = load i32, ptr %3, align 4, !tbaa !8
  %21 = add nsw i32 %20, %19
  store i32 %21, ptr %3, align 4, !tbaa !8
  %22 = load ptr, ptr %2, align 8, !tbaa !24
  %23 = getelementptr inbounds nuw %struct.Supp_Man_t_, ptr %22, i32 0, i32 13
  %24 = load ptr, ptr %23, align 8, !tbaa !75
  %25 = call i32 @Vec_PtrSize(ptr noundef %24)
  %26 = add nsw i32 %25, 1
  %27 = load ptr, ptr %2, align 8, !tbaa !24
  %28 = getelementptr inbounds nuw %struct.Supp_Man_t_, ptr %27, i32 0, i32 15
  %29 = load ptr, ptr %28, align 8, !tbaa !77
  %30 = call double @Vec_WrdMemory(ptr noundef %29)
  %31 = fptosi double %30 to i32
  %32 = mul nsw i32 %26, %31
  %33 = load i32, ptr %3, align 4, !tbaa !8
  %34 = add nsw i32 %33, %32
  store i32 %34, ptr %3, align 4, !tbaa !8
  %35 = load ptr, ptr %2, align 8, !tbaa !24
  %36 = getelementptr inbounds nuw %struct.Supp_Man_t_, ptr %35, i32 0, i32 14
  %37 = load ptr, ptr %36, align 8, !tbaa !76
  %38 = call double @Vec_WrdMemory(ptr noundef %37)
  %39 = fptosi double %38 to i32
  %40 = load i32, ptr %3, align 4, !tbaa !8
  %41 = add nsw i32 %40, %39
  store i32 %41, ptr %3, align 4, !tbaa !8
  %42 = load ptr, ptr %2, align 8, !tbaa !24
  %43 = getelementptr inbounds nuw %struct.Supp_Man_t_, ptr %42, i32 0, i32 16
  %44 = load ptr, ptr %43, align 8, !tbaa !78
  %45 = call double @Vec_IntMemory(ptr noundef %44)
  %46 = fptosi double %45 to i32
  %47 = load i32, ptr %3, align 4, !tbaa !8
  %48 = add nsw i32 %47, %46
  store i32 %48, ptr %3, align 4, !tbaa !8
  %49 = load ptr, ptr %2, align 8, !tbaa !24
  %50 = getelementptr inbounds nuw %struct.Supp_Man_t_, ptr %49, i32 0, i32 17
  %51 = load ptr, ptr %50, align 8, !tbaa !26
  %52 = call double @Hsh_VecManMemory(ptr noundef %51)
  %53 = fptosi double %52 to i32
  %54 = load i32, ptr %3, align 4, !tbaa !8
  %55 = add nsw i32 %54, %53
  store i32 %55, ptr %3, align 4, !tbaa !8
  %56 = load ptr, ptr %2, align 8, !tbaa !24
  %57 = getelementptr inbounds nuw %struct.Supp_Man_t_, ptr %56, i32 0, i32 18
  %58 = load ptr, ptr %57, align 8, !tbaa !35
  %59 = call double @Vec_WrdMemory(ptr noundef %58)
  %60 = fptosi double %59 to i32
  %61 = load i32, ptr %3, align 4, !tbaa !8
  %62 = add nsw i32 %61, %60
  store i32 %62, ptr %3, align 4, !tbaa !8
  %63 = load ptr, ptr %2, align 8, !tbaa !24
  %64 = getelementptr inbounds nuw %struct.Supp_Man_t_, ptr %63, i32 0, i32 19
  %65 = load ptr, ptr %64, align 8, !tbaa !34
  %66 = call double @Vec_IntMemory(ptr noundef %65)
  %67 = fptosi double %66 to i32
  %68 = load i32, ptr %3, align 4, !tbaa !8
  %69 = add nsw i32 %68, %67
  store i32 %69, ptr %3, align 4, !tbaa !8
  %70 = load ptr, ptr %2, align 8, !tbaa !24
  %71 = getelementptr inbounds nuw %struct.Supp_Man_t_, ptr %70, i32 0, i32 20
  %72 = load ptr, ptr %71, align 8, !tbaa !38
  %73 = call double @Vec_IntMemory(ptr noundef %72)
  %74 = fptosi double %73 to i32
  %75 = load i32, ptr %3, align 4, !tbaa !8
  %76 = add nsw i32 %75, %74
  store i32 %76, ptr %3, align 4, !tbaa !8
  %77 = load ptr, ptr %2, align 8, !tbaa !24
  %78 = getelementptr inbounds nuw %struct.Supp_Man_t_, ptr %77, i32 0, i32 21
  %79 = load ptr, ptr %78, align 8, !tbaa !39
  %80 = call double @Vec_IntMemory(ptr noundef %79)
  %81 = fptosi double %80 to i32
  %82 = load i32, ptr %3, align 4, !tbaa !8
  %83 = add nsw i32 %82, %81
  store i32 %83, ptr %3, align 4, !tbaa !8
  %84 = load ptr, ptr %2, align 8, !tbaa !24
  %85 = getelementptr inbounds nuw %struct.Supp_Man_t_, ptr %84, i32 0, i32 25
  %86 = load ptr, ptr %85, align 8, !tbaa !79
  %87 = call double @Vec_WecMemory(ptr noundef %86)
  %88 = fptosi double %87 to i32
  %89 = load i32, ptr %3, align 4, !tbaa !8
  %90 = add nsw i32 %89, %88
  store i32 %90, ptr %3, align 4, !tbaa !8
  %91 = load ptr, ptr %2, align 8, !tbaa !24
  %92 = getelementptr inbounds nuw %struct.Supp_Man_t_, ptr %91, i32 0, i32 22
  %93 = load ptr, ptr %92, align 8, !tbaa !33
  %94 = call double @Vec_IntMemory(ptr noundef %93)
  %95 = fptosi double %94 to i32
  %96 = load i32, ptr %3, align 4, !tbaa !8
  %97 = add nsw i32 %96, %95
  store i32 %97, ptr %3, align 4, !tbaa !8
  %98 = load ptr, ptr %2, align 8, !tbaa !24
  %99 = getelementptr inbounds nuw %struct.Supp_Man_t_, ptr %98, i32 0, i32 23
  %100 = load ptr, ptr %99, align 8, !tbaa !80
  %101 = call double @Vec_IntMemory(ptr noundef %100)
  %102 = fptosi double %101 to i32
  %103 = load i32, ptr %3, align 4, !tbaa !8
  %104 = add nsw i32 %103, %102
  store i32 %104, ptr %3, align 4, !tbaa !8
  %105 = load ptr, ptr %2, align 8, !tbaa !24
  %106 = getelementptr inbounds nuw %struct.Supp_Man_t_, ptr %105, i32 0, i32 24
  %107 = load ptr, ptr %106, align 8, !tbaa !81
  %108 = call double @Vec_IntMemory(ptr noundef %107)
  %109 = fptosi double %108 to i32
  %110 = load i32, ptr %3, align 4, !tbaa !8
  %111 = add nsw i32 %110, %109
  store i32 %111, ptr %3, align 4, !tbaa !8
  %112 = load i32, ptr %3, align 4, !tbaa !8
  call void @llvm.lifetime.end.p0(i64 4, ptr %3) #15
  ret i32 %112
}